Certificate:
    Data:
        Version: 3 (0x2)
        Serial Number:
            6b:72:8c:79:73:96:31:e2:55:57:55:db:24:bb:7d:5b:18:5a:76:ad
        Signature Algorithm: sha256WithRSAEncryption
        Issuer: C = FR, ST = France, L = Nantes, O = Clever-Cloud, CN = localhost
        Validity
            Not Before: May  3 16:22:09 2023 GMT
            Not After : May  2 16:22:09 2024 GMT
        Subject: C = FR, ST = France, L = Nantes, O = Clever-Cloud, CN = localhost
        Subject Public Key Info:
            Public Key Algorithm: rsaEncryption
                Public-Key: (4096 bit)
                Modulus:
                    00:c9:c4:83:76:b9:27:61:1b:f6:e5:3c:fa:9b:4f:
                    fc:6b:a0:ee:be:74:09:81:11:b7:cf:36:13:d6:d9:
                    12:a8:3c:a0:4c:93:95:66:82:10:84:48:7e:9b:2f:
                    45:a9:50:f0:6b:a8:82:d9:2c:63:53:d9:fe:0f:b4:
                    46:fd:4d:5b:83:07:1e:2a:29:ec:b0:d6:d4:8f:ff:
                    cf:4f:6c:9e:4d:86:af:96:32:93:d3:a0:25:90:b6:
                    78:96:05:1c:29:20:0d:d4:33:0a:17:3f:6b:df:bf:
                    c0:91:6b:35:e3:c0:9c:4b:76:74:6c:8d:c4:fb:17:
                    50:7e:8a:3a:4b:52:e5:7e:9c:df:ec:8f:05:89:12:
                    5f:e3:29:d5:62:bc:1e:55:4e:c8:6b:0e:b3:20:0c:
                    97:b0:33:8e:43:d1:bb:ad:e4:9c:54:95:81:d4:55:
                    e9:0b:46:0f:e4:05:43:e4:b5:e4:8b:05:68:0e:89:
                    02:29:1d:e4:cf:99:b6:97:df:8b:82:1f:e8:36:d9:
                    92:eb:60:f3:17:72:00:30:6b:47:02:66:a8:92:3a:
                    0f:6a:d7:1b:e2:25:b0:5b:3f:fd:a4:5d:07:90:d1:
                    ed:dd:12:e3:81:f1:69:5e:9a:69:9a:45:73:2c:92:
                    cc:b4:c4:e8:ba:95:80:92:56:3f:53:ab:a7:0a:68:
                    a4:2b:ed:02:c4:4f:43:2c:e2:53:77:fa:c0:d7:ce:
                    04:44:76:3f:22:67:dd:a6:7b:8b:e5:a9:5c:35:51:
                    f6:4d:1d:86:11:56:5f:4d:ae:87:12:60:de:27:a7:
                    77:e3:81:c6:5f:fd:93:49:de:1f:c2:ca:19:24:f7:
                    94:d0:90:c6:fe:43:f5:b6:ed:21:c3:d9:89:de:a7:
                    03:f6:1b:47:75:21:e1:fe:5c:17:91:c1:0c:93:0e:
                    c1:29:16:58:62:bc:4b:eb:bb:09:76:dc:12:6e:67:
                    b1:c7:27:eb:2d:46:02:e8:58:99:0b:df:0b:64:c2:
                    80:a4:2f:f5:80:36:85:d7:30:d6:b2:87:13:69:d4:
                    32:10:1c:bb:63:b4:1b:19:f0:67:2f:f1:fd:62:63:
                    2a:b4:ff:41:97:f2:92:07:70:a3:e5:31:b7:b5:e1:
                    1e:9d:89:7b:38:2c:36:4d:94:8c:4f:32:0e:2c:1e:
                    d7:30:7e:1b:88:a3:e9:02:35:87:60:3f:50:30:4d:
                    23:97:91:ed:8f:df:ac:c1:d0:cc:6e:aa:25:3b:b4:
                    e4:2c:3e:2f:46:9a:17:91:0a:fe:06:91:80:94:32:
                    42:c3:75:74:05:45:e8:82:cd:fd:c4:b6:ce:29:4d:
                    4f:36:40:cb:a3:46:a2:17:6f:14:67:15:ed:e4:bd:
                    93:ab:b7
                Exponent: 65537 (0x10001)
        X509v3 extensions:
            X509v3 Basic Constraints: critical
                CA:TRUE
            X509v3 Key Usage: 
                Digital Signature, Non Repudiation, Key Encipherment
            X509v3 Subject Alternative Name: 
                DNS:localhost
            X509v3 Subject Key Identifier: 
                E0:EB:F3:F6:CB:A8:AE:F4:91:CF:E9:45:B9:4E:B3:E3:F4:BC:CF:7D
    Signature Algorithm: sha256WithRSAEncryption
    Signature Value:
        6d:64:d6:2b:38:24:82:29:10:49:fa:f1:41:a4:a1:4c:77:ab:
        de:2a:1a:9a:03:59:6d:7a:bb:98:a0:33:dc:e2:53:14:1f:e1:
        78:ec:93:be:c5:28:ec:60:0e:d9:de:c6:82:c6:78:bd:42:a6:
        b2:2f:42:a9:5c:77:fd:1b:79:5b:82:c0:5d:e0:63:a8:60:10:
        30:44:be:43:a9:6f:a2:b0:e9:d8:51:a7:5a:9d:c2:64:89:58:
        c0:15:0f:f5:5e:b1:eb:82:6f:69:43:20:ce:77:e3:26:35:85:
        d8:14:37:dc:07:fe:01:b4:6f:f0:07:50:99:3f:6a:0f:73:66:
        87:d2:31:2a:2a:14:09:6c:bb:ca:65:26:b6:10:09:40:61:d6:
        b7:bb:86:ef:ec:5a:84:d7:d8:94:98:4f:83:d9:f5:17:21:4e:
        9b:e4:b6:85:e5:77:c2:96:4c:f7:af:7b:5b:05:a5:6a:7d:6c:
        a3:6f:5e:81:95:ce:9c:ab:12:75:9d:bc:c1:50:41:29:ea:e4:
        f9:45:39:40:92:a4:ed:3d:a8:63:f4:74:00:2b:51:ff:f5:14:
        ee:18:21:68:da:8f:2f:39:14:72:71:26:05:8d:c4:f2:c2:0f:
        cb:cf:35:ec:75:7c:2a:7b:e6:51:64:b4:28:55:9c:c5:bf:1f:
        a6:d9:7e:8c:78:7c:8f:18:85:2b:c2:a7:55:40:be:2b:1b:5f:
        9e:db:c4:d6:bb:2e:a7:b9:d3:89:6a:a9:15:1f:c6:1c:e2:6c:
        4b:ea:d4:a3:90:fe:36:81:17:08:72:81:63:32:26:e1:89:61:
        56:a8:55:6a:c1:46:4c:f8:e7:51:11:d4:bc:0e:ef:27:0f:cd:
        8a:37:4b:98:db:c3:48:5d:53:cc:f9:4d:53:7b:99:3b:fd:c1:
        63:0d:f8:f4:44:1c:e5:2b:04:50:68:2d:e4:43:b8:f1:db:aa:
        1f:ac:99:64:66:cf:7c:86:83:89:09:be:a5:9a:24:9b:87:c9:
        31:c8:ad:2e:a5:cb:e0:78:a3:89:88:98:ef:06:a5:a4:a1:de:
        69:da:56:0b:dc:83:8d:2d:34:34:7f:74:84:8d:9e:07:f1:d2:
        45:70:9f:a6:67:3d:11:68:b1:b1:6b:a0:06:ea:53:cc:5c:8a:
        a6:6b:cc:69:b6:ce:f1:7a:dc:2a:db:54:71:06:50:7a:4e:11:
        a4:8c:ed:ae:5b:53:8d:bf:80:2c:a0:ce:31:8e:ef:96:ad:ac:
        13:57:4f:c4:be:9e:c0:27:f1:53:52:00:ca:1a:e3:83:db:63:
        7c:b2:6c:92:a1:b8:cc:9e:d7:fd:34:55:4c:99:21:7d:0a:1c:
        6a:1a:09:a1:e6:02:c0:6a
-----BEGIN CERTIFICATE-----
MIIFlzCCA3+gAwIBAgIUa3KMeXOWMeJVV1XbJLt9Wxhadq0wDQYJKoZIhvcNAQEL
BQAwWjELMAkGA1UEBhMCRlIxDzANBgNVBAgMBkZyYW5jZTEPMA0GA1UEBwwGTmFu
dGVzMRUwEwYDVQQKDAxDbGV2ZXItQ2xvdWQxEjAQBgNVBAMMCWxvY2FsaG9zdDAe
Fw0yMzA1MDMxNjIyMDlaFw0yNDA1MDIxNjIyMDlaMFoxCzAJBgNVBAYTAkZSMQ8w
DQYDVQQIDAZGcmFuY2UxDzANBgNVBAcMBk5hbnRlczEVMBMGA1UECgwMQ2xldmVy
LUNsb3VkMRIwEAYDVQQDDAlsb2NhbGhvc3QwggIiMA0GCSqGSIb3DQEBAQUAA4IC
DwAwggIKAoICAQDJxIN2uSdhG/blPPqbT/xroO6+dAmBEbfPNhPW2RKoPKBMk5Vm
ghCESH6bL0WpUPBrqILZLGNT2f4PtEb9TVuDBx4qKeyw1tSP/89PbJ5Nhq+WMpPT
oCWQtniWBRwpIA3UMwoXP2vfv8CRazXjwJxLdnRsjcT7F1B+ijpLUuV+nN/sjwWJ
El/jKdVivB5VTshrDrMgDJewM45D0but5JxUlYHUVekLRg/kBUPkteSLBWgOiQIp
HeTPmbaX34uCH+g22ZLrYPMXcgAwa0cCZqiSOg9q1xviJbBbP/2kXQeQ0e3dEuOB
8WlemmmaRXMsksy0xOi6lYCSVj9Tq6cKaKQr7QLET0Ms4lN3+sDXzgREdj8iZ92m
e4vlqVw1UfZNHYYRVl9NrocSYN4np3fjgcZf/ZNJ3h/Cyhkk95TQkMb+Q/W27SHD
2YnepwP2G0d1IeH+XBeRwQyTDsEpFlhivEvruwl23BJuZ7HHJ+stRgLoWJkL3wtk
woCkL/WANoXXMNayhxNp1DIQHLtjtBsZ8Gcv8f1iYyq0/0GX8pIHcKPlMbe14R6d
iXs4LDZNlIxPMg4sHtcwfhuIo+kCNYdgP1AwTSOXke2P36zB0MxuqiU7tOQsPi9G
mheRCv4GkYCUMkLDdXQFReiCzf3Ets4pTU82QMujRqIXbxRnFe3kvZOrtwIDAQAB
o1UwUzAPBgNVHRMBAf8EBTADAQH/MAsGA1UdDwQEAwIF4DAUBgNVHREEDTALggls
b2NhbGhvc3QwHQYDVR0OBBYEFODr8/bLqK70kc/pRblOs+P0vM99MA0GCSqGSIb3
DQEBCwUAA4ICAQBtZNYrOCSCKRBJ+vFBpKFMd6veKhqaA1lteruYoDPc4lMUH+F4
7JO+xSjsYA7Z3saCxni9QqayL0KpXHf9G3lbgsBd4GOoYBAwRL5DqW+isOnYUada
ncJkiVjAFQ/1XrHrgm9pQyDOd+MmNYXYFDfcB/4BtG/wB1CZP2oPc2aH0jEqKhQJ
bLvKZSa2EAlAYda3u4bv7FqE19iUmE+D2fUXIU6b5LaF5XfClkz3r3tbBaVqfWyj
b16Blc6cqxJ1nbzBUEEp6uT5RTlAkqTtPahj9HQAK1H/9RTuGCFo2o8vORRycSYF
jcTywg/LzzXsdXwqe+ZRZLQoVZzFvx+m2X6MeHyPGIUrwqdVQL4rG1+e28TWuy6n
udOJaqkVH8Yc4mxL6tSjkP42gRcIcoFjMibhiWFWqFVqwUZM+OdREdS8Du8nD82K
N0uY28NIXVPM+U1Te5k7/cFjDfj0RBzlKwRQaC3kQ7jx26ofrJlkZs98hoOJCb6l
miSbh8kxyK0upcvgeKOJiJjvBqWkod5p2lYL3IONLTQ0f3SEjZ4H8dJFcJ+mZz0R
aLGxa6AG6lPMXIqma8xpts7xetwq21RxBlB6ThGkjO2uW1ONv4AsoM4xju+WrawT
V0/Evp7AJ/FTUgDKGuOD22N8smySobjMntf9NFVMmSF9ChxqGgmh5gLAag==
-----END CERTIFICATE-----
